; Function Attrs: mustprogress nounwind uwtable
define hidden noundef i64 @_ZN15ZMarkStackSpace12shrink_spaceEv(ptr noundef nonnull align 8 dereferenceable(65) %0) local_unnamed_addr #0 align 2 {
  %2 = getelementptr inbounds i8, ptr %0, i64 56
  %3 = load volatile i64, ptr %2, align 8
  %4 = getelementptr inbounds i8, ptr %0, i64 40
  %5 = load i64, ptr %4, align 8
  %6 = sub i64 %3, %5
  %7 = getelementptr inbounds i8, ptr %0, i64 48
  %8 = load volatile i64, ptr %7, align 8
  %9 = xor i64 %5, -1
  %10 = add i64 %8, %9
  %11 = and i64 %10, -33554432
  %12 = add i64 %11, 33554432
  %13 = sub i64 %6, %12
  %.not = icmp eq i64 %6, %12
  br i1 %.not, label %24, label %14

14:                                               ; preds = %1
  %15 = load volatile ptr, ptr getelementptr inbounds (i8, ptr @_ZN16LogTagSetMappingILN6LogTag4typeE49ELS1_80ELS1_0ELS1_0ELS1_0ELS1_0EE7_tagsetE, i64 56), align 8
  %.not9 = icmp eq ptr %15, null
  br i1 %.not9, label %19, label %16

16:                                               ; preds = %14
  %17 = lshr i64 %6, 20
  %18 = lshr exact i64 %12, 20
  tail call void (ptr, ...) @_ZN7LogImplILN6LogTag4typeE49ELS1_80ELS1_0ELS1_0ELS1_0ELS1_0EE5writeILN8LogLevel4typeE2EEEvPKcz(ptr noundef nonnull @.str.8, i64 noundef %17, i64 noundef %18)
  br label %19

19:                                               ; preds = %14, %16
  %20 = load volatile i64, ptr %2, align 8
  %21 = sub i64 %20, %13
  %22 = inttoptr i64 %21 to ptr
  %23 = tail call noundef zeroext i1 @_ZN2os15uncommit_memoryEPcmb(ptr noundef %22, i64 noundef %13, i1 noundef zeroext false) #10
  br label %24

24:                                               ; preds = %19, %1
  ret i64 %13
}